target datalayout = "e-m:e-p270:32:32-p271:32:32-p272:64:64-i64:64-i128:128-f80:128-n8:16:32:64-S128"
target triple = "x86_64-pc-linux-gnu"

%struct.ucs4lib__pre = type { ptr, i64, i64, i64, i64, i32, [64 x i8] }

; Function Attrs: inlinehint nounwind uwtable
define internal i64 @ucs4lib__lex_search(ptr noundef %0, i64 noundef %1, ptr noundef %2, i32 noundef %3) #2 {
  %5 = alloca ptr, align 8
  %6 = alloca i64, align 8
  %7 = alloca ptr, align 8
  %8 = alloca i32, align 4
  %9 = alloca i64, align 8
  %10 = alloca i64, align 8
  %11 = alloca i64, align 8
  %12 = alloca i64, align 8
  %13 = alloca i32, align 4
  %14 = alloca i32, align 4
  store ptr %0, ptr %5, align 8, !tbaa !210
  store i64 %1, ptr %6, align 8, !tbaa !185
  store ptr %2, ptr %7, align 8, !tbaa !223
  store i32 %3, ptr %8, align 4, !tbaa !190
  call void @llvm.lifetime.start.p0(i64 8, ptr %9) #12
  store i64 0, ptr %9, align 8, !tbaa !185
  call void @llvm.lifetime.start.p0(i64 8, ptr %10) #12
  store i64 1, ptr %10, align 8, !tbaa !185
  call void @llvm.lifetime.start.p0(i64 8, ptr %11) #12
  store i64 0, ptr %11, align 8, !tbaa !185
  call void @llvm.lifetime.start.p0(i64 8, ptr %12) #12
  store i64 1, ptr %12, align 8, !tbaa !185
  br label %15

15:                                               ; preds = %74, %4
  %16 = load i64, ptr %10, align 8, !tbaa !185
  %17 = load i64, ptr %11, align 8, !tbaa !185
  %18 = add i64 %16, %17
  %19 = load i64, ptr %6, align 8, !tbaa !185
  %20 = icmp slt i64 %18, %19
  br i1 %20, label %21, label %75

21:                                               ; preds = %15
  call void @llvm.lifetime.start.p0(i64 4, ptr %13) #12
  %22 = load ptr, ptr %5, align 8, !tbaa !210
  %23 = load i64, ptr %10, align 8, !tbaa !185
  %24 = load i64, ptr %11, align 8, !tbaa !185
  %25 = add i64 %23, %24
  %26 = getelementptr i32, ptr %22, i64 %25
  %27 = load i32, ptr %26, align 4, !tbaa !190
  store i32 %27, ptr %13, align 4, !tbaa !190
  call void @llvm.lifetime.start.p0(i64 4, ptr %14) #12
  %28 = load ptr, ptr %5, align 8, !tbaa !210
  %29 = load i64, ptr %9, align 8, !tbaa !185
  %30 = load i64, ptr %11, align 8, !tbaa !185
  %31 = add i64 %29, %30
  %32 = getelementptr i32, ptr %28, i64 %31
  %33 = load i32, ptr %32, align 4, !tbaa !190
  store i32 %33, ptr %14, align 4, !tbaa !190
  %34 = load i32, ptr %8, align 4, !tbaa !190
  %35 = icmp ne i32 %34, 0
  br i1 %35, label %36, label %40

36:                                               ; preds = %21
  %37 = load i32, ptr %14, align 4, !tbaa !190
  %38 = load i32, ptr %13, align 4, !tbaa !190
  %39 = icmp ult i32 %37, %38
  br i1 %39, label %44, label %52

40:                                               ; preds = %21
  %41 = load i32, ptr %13, align 4, !tbaa !190
  %42 = load i32, ptr %14, align 4, !tbaa !190
  %43 = icmp ult i32 %41, %42
  br i1 %43, label %44, label %52

44:                                               ; preds = %40, %36
  %45 = load i64, ptr %11, align 8, !tbaa !185
  %46 = add i64 %45, 1
  %47 = load i64, ptr %10, align 8, !tbaa !185
  %48 = add i64 %47, %46
  store i64 %48, ptr %10, align 8, !tbaa !185
  store i64 0, ptr %11, align 8, !tbaa !185
  %49 = load i64, ptr %10, align 8, !tbaa !185
  %50 = load i64, ptr %9, align 8, !tbaa !185
  %51 = sub i64 %49, %50
  store i64 %51, ptr %12, align 8, !tbaa !185
  br label %74

52:                                               ; preds = %40, %36
  %53 = load i32, ptr %13, align 4, !tbaa !190
  %54 = load i32, ptr %14, align 4, !tbaa !190
  %55 = icmp eq i32 %53, %54
  br i1 %55, label %56, label %69

56:                                               ; preds = %52
  %57 = load i64, ptr %11, align 8, !tbaa !185
  %58 = add i64 %57, 1
  %59 = load i64, ptr %12, align 8, !tbaa !185
  %60 = icmp ne i64 %58, %59
  br i1 %60, label %61, label %64

61:                                               ; preds = %56
  %62 = load i64, ptr %11, align 8, !tbaa !185
  %63 = add i64 %62, 1
  store i64 %63, ptr %11, align 8, !tbaa !185
  br label %68

64:                                               ; preds = %56
  %65 = load i64, ptr %12, align 8, !tbaa !185
  %66 = load i64, ptr %10, align 8, !tbaa !185
  %67 = add i64 %66, %65
  store i64 %67, ptr %10, align 8, !tbaa !185
  store i64 0, ptr %11, align 8, !tbaa !185
  br label %68

68:                                               ; preds = %64, %61
  br label %73

69:                                               ; preds = %52
  %70 = load i64, ptr %10, align 8, !tbaa !185
  store i64 %70, ptr %9, align 8, !tbaa !185
  %71 = load i64, ptr %10, align 8, !tbaa !185
  %72 = add i64 %71, 1
  store i64 %72, ptr %10, align 8, !tbaa !185
  store i64 0, ptr %11, align 8, !tbaa !185
  store i64 1, ptr %12, align 8, !tbaa !185
  br label %73

73:                                               ; preds = %69, %68
  br label %74

74:                                               ; preds = %73, %44
  call void @llvm.lifetime.end.p0(i64 4, ptr %14) #12
  call void @llvm.lifetime.end.p0(i64 4, ptr %13) #12
  br label %15, !llvm.loop !654

75:                                               ; preds = %15
  %76 = load i64, ptr %12, align 8, !tbaa !185
  %77 = load ptr, ptr %7, align 8, !tbaa !223
  store i64 %76, ptr %77, align 8, !tbaa !185
  %78 = load i64, ptr %9, align 8, !tbaa !185
  call void @llvm.lifetime.end.p0(i64 8, ptr %12) #12
  call void @llvm.lifetime.end.p0(i64 8, ptr %11) #12
  call void @llvm.lifetime.end.p0(i64 8, ptr %10) #12
  call void @llvm.lifetime.end.p0(i64 8, ptr %9) #12
  ret i64 %78
}

; Function Attrs: inlinehint nounwind uwtable
define internal i64 @ucs4lib__factorize(ptr noundef %0, i64 noundef %1, ptr noundef %2) #2 {
  %4 = alloca ptr, align 8
  %5 = alloca i64, align 8
  %6 = alloca ptr, align 8
  %7 = alloca i64, align 8
  %8 = alloca i64, align 8
  %9 = alloca i64, align 8
  %10 = alloca i64, align 8
  %11 = alloca i64, align 8
  %12 = alloca i64, align 8
  store ptr %0, ptr %4, align 8, !tbaa !210
  store i64 %1, ptr %5, align 8, !tbaa !185
  store ptr %2, ptr %6, align 8, !tbaa !223
  call void @llvm.lifetime.start.p0(i64 8, ptr %7) #12
  call void @llvm.lifetime.start.p0(i64 8, ptr %8) #12
  call void @llvm.lifetime.start.p0(i64 8, ptr %9) #12
  call void @llvm.lifetime.start.p0(i64 8, ptr %10) #12
  call void @llvm.lifetime.start.p0(i64 8, ptr %11) #12
  call void @llvm.lifetime.start.p0(i64 8, ptr %12) #12
  %13 = load ptr, ptr %4, align 8, !tbaa !210
  %14 = load i64, ptr %5, align 8, !tbaa !185
  %15 = call i64 @ucs4lib__lex_search(ptr noundef %13, i64 noundef %14, ptr noundef %8, i32 noundef 0)
  store i64 %15, ptr %7, align 8, !tbaa !185
  %16 = load ptr, ptr %4, align 8, !tbaa !210
  %17 = load i64, ptr %5, align 8, !tbaa !185
  %18 = call i64 @ucs4lib__lex_search(ptr noundef %16, i64 noundef %17, ptr noundef %10, i32 noundef 1)
  store i64 %18, ptr %9, align 8, !tbaa !185
  %19 = load i64, ptr %7, align 8, !tbaa !185
  %20 = load i64, ptr %9, align 8, !tbaa !185
  %21 = icmp sgt i64 %19, %20
  br i1 %21, label %22, label %25

22:                                               ; preds = %3
  %23 = load i64, ptr %8, align 8, !tbaa !185
  store i64 %23, ptr %12, align 8, !tbaa !185
  %24 = load i64, ptr %7, align 8, !tbaa !185
  store i64 %24, ptr %11, align 8, !tbaa !185
  br label %28

25:                                               ; preds = %3
  %26 = load i64, ptr %10, align 8, !tbaa !185
  store i64 %26, ptr %12, align 8, !tbaa !185
  %27 = load i64, ptr %9, align 8, !tbaa !185
  store i64 %27, ptr %11, align 8, !tbaa !185
  br label %28

28:                                               ; preds = %25, %22
  %29 = load i64, ptr %12, align 8, !tbaa !185
  %30 = load ptr, ptr %6, align 8, !tbaa !223
  store i64 %29, ptr %30, align 8, !tbaa !185
  %31 = load i64, ptr %11, align 8, !tbaa !185
  call void @llvm.lifetime.end.p0(i64 8, ptr %12) #12
  call void @llvm.lifetime.end.p0(i64 8, ptr %11) #12
  call void @llvm.lifetime.end.p0(i64 8, ptr %10) #12
  call void @llvm.lifetime.end.p0(i64 8, ptr %9) #12
  call void @llvm.lifetime.end.p0(i64 8, ptr %8) #12
  call void @llvm.lifetime.end.p0(i64 8, ptr %7) #12
  ret i64 %31
}

; Function Attrs: nounwind uwtable
define internal void @ucs4lib__preprocess(ptr noundef %0, i64 noundef %1, ptr noundef %2) #0 {
  %4 = alloca ptr, align 8
  %5 = alloca i64, align 8
  %6 = alloca ptr, align 8
  %7 = alloca i32, align 4
  %8 = alloca i64, align 8
  %9 = alloca i32, align 4
  %10 = alloca i32, align 4
  %11 = alloca i64, align 8
  %12 = alloca i64, align 8
  %13 = alloca i64, align 8
  %14 = alloca i8, align 1
  store ptr %0, ptr %4, align 8, !tbaa !210
  store i64 %1, ptr %5, align 8, !tbaa !185
  store ptr %2, ptr %6, align 8, !tbaa !638
  %15 = load ptr, ptr %4, align 8, !tbaa !210
  %16 = load ptr, ptr %6, align 8, !tbaa !638
  %17 = getelementptr inbounds nuw %struct.ucs4lib__pre, ptr %16, i32 0, i32 0
  store ptr %15, ptr %17, align 8, !tbaa !640
  %18 = load i64, ptr %5, align 8, !tbaa !185
  %19 = load ptr, ptr %6, align 8, !tbaa !638
  %20 = getelementptr inbounds nuw %struct.ucs4lib__pre, ptr %19, i32 0, i32 1
  store i64 %18, ptr %20, align 8, !tbaa !642
  %21 = load ptr, ptr %4, align 8, !tbaa !210
  %22 = load i64, ptr %5, align 8, !tbaa !185
  %23 = load ptr, ptr %6, align 8, !tbaa !638
  %24 = getelementptr inbounds nuw %struct.ucs4lib__pre, ptr %23, i32 0, i32 3
  %25 = call i64 @ucs4lib__factorize(ptr noundef %21, i64 noundef %22, ptr noundef %24)
  %26 = load ptr, ptr %6, align 8, !tbaa !638
  %27 = getelementptr inbounds nuw %struct.ucs4lib__pre, ptr %26, i32 0, i32 2
  store i64 %25, ptr %27, align 8, !tbaa !643
  %28 = load ptr, ptr %4, align 8, !tbaa !210
  %29 = load ptr, ptr %4, align 8, !tbaa !210
  %30 = load ptr, ptr %6, align 8, !tbaa !638
  %31 = getelementptr inbounds nuw %struct.ucs4lib__pre, ptr %30, i32 0, i32 3
  %32 = load i64, ptr %31, align 8, !tbaa !644
  %33 = getelementptr i32, ptr %29, i64 %32
  %34 = load ptr, ptr %6, align 8, !tbaa !638
  %35 = getelementptr inbounds nuw %struct.ucs4lib__pre, ptr %34, i32 0, i32 2
  %36 = load i64, ptr %35, align 8, !tbaa !643
  %37 = mul i64 %36, 4
  %38 = call i32 @memcmp(ptr noundef %28, ptr noundef %33, i64 noundef %37) #13
  %39 = icmp eq i32 0, %38
  %40 = zext i1 %39 to i32
  %41 = load ptr, ptr %6, align 8, !tbaa !638
  %42 = getelementptr inbounds nuw %struct.ucs4lib__pre, ptr %41, i32 0, i32 5
  store i32 %40, ptr %42, align 8, !tbaa !645
  %43 = load ptr, ptr %6, align 8, !tbaa !638
  %44 = getelementptr inbounds nuw %struct.ucs4lib__pre, ptr %43, i32 0, i32 5
  %45 = load i32, ptr %44, align 8, !tbaa !645
  %46 = icmp ne i32 %45, 0
  br i1 %46, label %47, label %48

47:                                               ; preds = %3
  br label %73

48:                                               ; preds = %3
  %49 = load ptr, ptr %6, align 8, !tbaa !638
  %50 = getelementptr inbounds nuw %struct.ucs4lib__pre, ptr %49, i32 0, i32 2
  %51 = load i64, ptr %50, align 8, !tbaa !643
  %52 = load i64, ptr %5, align 8, !tbaa !185
  %53 = load ptr, ptr %6, align 8, !tbaa !638
  %54 = getelementptr inbounds nuw %struct.ucs4lib__pre, ptr %53, i32 0, i32 2
  %55 = load i64, ptr %54, align 8, !tbaa !643
  %56 = sub i64 %52, %55
  %57 = icmp sgt i64 %51, %56
  br i1 %57, label %58, label %62

58:                                               ; preds = %48
  %59 = load ptr, ptr %6, align 8, !tbaa !638
  %60 = getelementptr inbounds nuw %struct.ucs4lib__pre, ptr %59, i32 0, i32 2
  %61 = load i64, ptr %60, align 8, !tbaa !643
  br label %68

62:                                               ; preds = %48
  %63 = load i64, ptr %5, align 8, !tbaa !185
  %64 = load ptr, ptr %6, align 8, !tbaa !638
  %65 = getelementptr inbounds nuw %struct.ucs4lib__pre, ptr %64, i32 0, i32 2
  %66 = load i64, ptr %65, align 8, !tbaa !643
  %67 = sub i64 %63, %66
  br label %68

68:                                               ; preds = %62, %58
  %69 = phi i64 [ %61, %58 ], [ %67, %62 ]
  %70 = add i64 %69, 1
  %71 = load ptr, ptr %6, align 8, !tbaa !638
  %72 = getelementptr inbounds nuw %struct.ucs4lib__pre, ptr %71, i32 0, i32 3
  store i64 %70, ptr %72, align 8, !tbaa !644
  br label %73

73:                                               ; preds = %68, %47
  %74 = load i64, ptr %5, align 8, !tbaa !185
  %75 = load ptr, ptr %6, align 8, !tbaa !638
  %76 = getelementptr inbounds nuw %struct.ucs4lib__pre, ptr %75, i32 0, i32 4
  store i64 %74, ptr %76, align 8, !tbaa !646
  call void @llvm.lifetime.start.p0(i64 4, ptr %7) #12
  %77 = load ptr, ptr %4, align 8, !tbaa !210
  %78 = load i64, ptr %5, align 8, !tbaa !185
  %79 = sub i64 %78, 1
  %80 = getelementptr i32, ptr %77, i64 %79
  %81 = load i32, ptr %80, align 4, !tbaa !190
  %82 = and i32 %81, 63
  store i32 %82, ptr %7, align 4, !tbaa !190
  call void @llvm.lifetime.start.p0(i64 8, ptr %8) #12
  %83 = load i64, ptr %5, align 8, !tbaa !185
  %84 = sub i64 %83, 2
  store i64 %84, ptr %8, align 8, !tbaa !185
  br label %85

85:                                               ; preds = %109, %73
  %86 = load i64, ptr %8, align 8, !tbaa !185
  %87 = icmp sge i64 %86, 0
  br i1 %87, label %89, label %88

88:                                               ; preds = %85
  store i32 2, ptr %9, align 4
  br label %112

89:                                               ; preds = %85
  call void @llvm.lifetime.start.p0(i64 4, ptr %10) #12
  %90 = load ptr, ptr %4, align 8, !tbaa !210
  %91 = load i64, ptr %8, align 8, !tbaa !185
  %92 = getelementptr i32, ptr %90, i64 %91
  %93 = load i32, ptr %92, align 4, !tbaa !190
  %94 = and i32 %93, 63
  store i32 %94, ptr %10, align 4, !tbaa !190
  %95 = load i32, ptr %10, align 4, !tbaa !190
  %96 = load i32, ptr %7, align 4, !tbaa !190
  %97 = icmp eq i32 %95, %96
  br i1 %97, label %98, label %105

98:                                               ; preds = %89
  %99 = load i64, ptr %5, align 8, !tbaa !185
  %100 = sub i64 %99, 1
  %101 = load i64, ptr %8, align 8, !tbaa !185
  %102 = sub i64 %100, %101
  %103 = load ptr, ptr %6, align 8, !tbaa !638
  %104 = getelementptr inbounds nuw %struct.ucs4lib__pre, ptr %103, i32 0, i32 4
  store i64 %102, ptr %104, align 8, !tbaa !646
  store i32 2, ptr %9, align 4
  br label %106

105:                                              ; preds = %89
  store i32 0, ptr %9, align 4
  br label %106

106:                                              ; preds = %105, %98
  call void @llvm.lifetime.end.p0(i64 4, ptr %10) #12
  %107 = load i32, ptr %9, align 4
  switch i32 %107, label %112 [
    i32 0, label %108
  ]

108:                                              ; preds = %106
  br label %109

109:                                              ; preds = %108
  %110 = load i64, ptr %8, align 8, !tbaa !185
  %111 = add i64 %110, -1
  store i64 %111, ptr %8, align 8, !tbaa !185
  br label %85, !llvm.loop !647

112:                                              ; preds = %106, %88
  call void @llvm.lifetime.end.p0(i64 8, ptr %8) #12
  br label %113

113:                                              ; preds = %112
  call void @llvm.lifetime.start.p0(i64 8, ptr %11) #12
  %114 = load i64, ptr %5, align 8, !tbaa !185
  %115 = icmp sgt i64 %114, 255
  br i1 %115, label %116, label %117

116:                                              ; preds = %113
  br label %119

117:                                              ; preds = %113
  %118 = load i64, ptr %5, align 8, !tbaa !185
  br label %119

119:                                              ; preds = %117, %116
  %120 = phi i64 [ 255, %116 ], [ %118, %117 ]
  store i64 %120, ptr %11, align 8, !tbaa !185
  call void @llvm.lifetime.start.p0(i64 8, ptr %12) #12
  store i64 0, ptr %12, align 8, !tbaa !185
  br label %121

121:                                              ; preds = %132, %119
  %122 = load i64, ptr %12, align 8, !tbaa !185
  %123 = icmp slt i64 %122, 64
  br i1 %123, label %125, label %124

124:                                              ; preds = %121
  store i32 5, ptr %9, align 4
  call void @llvm.lifetime.end.p0(i64 8, ptr %12) #12
  br label %135

125:                                              ; preds = %121
  %126 = load i64, ptr %11, align 8, !tbaa !185
  %127 = trunc i64 %126 to i8
  %128 = load ptr, ptr %6, align 8, !tbaa !638
  %129 = getelementptr inbounds nuw %struct.ucs4lib__pre, ptr %128, i32 0, i32 6
  %130 = load i64, ptr %12, align 8, !tbaa !185
  %131 = getelementptr [64 x i8], ptr %129, i64 0, i64 %130
  store i8 %127, ptr %131, align 1, !tbaa !191
  br label %132

132:                                              ; preds = %125
  %133 = load i64, ptr %12, align 8, !tbaa !185
  %134 = add i64 %133, 1
  store i64 %134, ptr %12, align 8, !tbaa !185
  br label %121, !llvm.loop !648

135:                                              ; preds = %124
  call void @llvm.lifetime.start.p0(i64 8, ptr %13) #12
  %136 = load i64, ptr %5, align 8, !tbaa !185
  %137 = load i64, ptr %11, align 8, !tbaa !185
  %138 = sub i64 %136, %137
  store i64 %138, ptr %13, align 8, !tbaa !185
  br label %139

139:                                              ; preds = %160, %135
  %140 = load i64, ptr %13, align 8, !tbaa !185
  %141 = load i64, ptr %5, align 8, !tbaa !185
  %142 = icmp slt i64 %140, %141
  br i1 %142, label %144, label %143

143:                                              ; preds = %139
  store i32 8, ptr %9, align 4
  call void @llvm.lifetime.end.p0(i64 8, ptr %13) #12
  br label %163

144:                                              ; preds = %139
  call void @llvm.lifetime.start.p0(i64 1, ptr %14) #12
  %145 = load i64, ptr %5, align 8, !tbaa !185
  %146 = sub i64 %145, 1
  %147 = load i64, ptr %13, align 8, !tbaa !185
  %148 = sub i64 %146, %147
  %149 = trunc i64 %148 to i8
  store i8 %149, ptr %14, align 1, !tbaa !191
  %150 = load i8, ptr %14, align 1, !tbaa !191
  %151 = load ptr, ptr %6, align 8, !tbaa !638
  %152 = getelementptr inbounds nuw %struct.ucs4lib__pre, ptr %151, i32 0, i32 6
  %153 = load ptr, ptr %4, align 8, !tbaa !210
  %154 = load i64, ptr %13, align 8, !tbaa !185
  %155 = getelementptr i32, ptr %153, i64 %154
  %156 = load i32, ptr %155, align 4, !tbaa !190
  %157 = and i32 %156, 63
  %158 = zext i32 %157 to i64
  %159 = getelementptr [64 x i8], ptr %152, i64 0, i64 %158
  store i8 %150, ptr %159, align 1, !tbaa !191
  call void @llvm.lifetime.end.p0(i64 1, ptr %14) #12
  br label %160

160:                                              ; preds = %144
  %161 = load i64, ptr %13, align 8, !tbaa !185
  %162 = add i64 %161, 1
  store i64 %162, ptr %13, align 8, !tbaa !185
  br label %139, !llvm.loop !649

163:                                              ; preds = %143
  call void @llvm.lifetime.end.p0(i64 8, ptr %11) #12
  call void @llvm.lifetime.end.p0(i64 4, ptr %7) #12
  ret void
}