; Function Attrs: nofree nounwind memory(argmem: readwrite) uwtable
define internal fastcc void @ucs4lib__preprocess(ptr noundef %0, i64 noundef range(i64 6, -9223372036854775808) %1, ptr noundef nonnull writeonly captures(none) initializes((0, 16)) %2) unnamed_addr #32 {
  store ptr %0, ptr %2, align 8, !tbaa !631
  %4 = getelementptr inbounds nuw i8, ptr %2, i64 8
  store i64 %1, ptr %4, align 8, !tbaa !633
  br label %.split.us.i.i

.split.us.i.i:                                    ; preds = %23, %3
  %5 = phi i64 [ %24, %23 ], [ 1, %3 ]
  %.042.us.i.i = phi i64 [ %.1.us.i.i, %23 ], [ 0, %3 ]
  %.02941.us.i.i = phi i64 [ %.130.us.i.i, %23 ], [ 1, %3 ]
  %.03140.us.i.i = phi i64 [ %.132.us.i.i, %23 ], [ 1, %3 ]
  %.03339.us.i.i = phi i64 [ %.134.us.i.i, %23 ], [ 0, %3 ]
  %6 = getelementptr i32, ptr %0, i64 %5
  %7 = load i32, ptr %6, align 4, !tbaa !200
  %8 = getelementptr i32, ptr %0, i64 %.042.us.i.i
  %9 = getelementptr i32, ptr %8, i64 %.03339.us.i.i
  %10 = load i32, ptr %9, align 4, !tbaa !200
  %11 = icmp ult i32 %7, %10
  br i1 %11, label %19, label %12

12:                                               ; preds = %.split.us.i.i
  %13 = icmp eq i32 %7, %10
  br i1 %13, label %16, label %14

14:                                               ; preds = %12
  %15 = add i64 %.02941.us.i.i, 1
  br label %23

16:                                               ; preds = %12
  %17 = add i64 %.03339.us.i.i, 1
  %.not37.us.i.i = icmp eq i64 %17, %.03140.us.i.i
  %spec.select.us.i.i = select i1 %.not37.us.i.i, i64 0, i64 %17
  %18 = select i1 %.not37.us.i.i, i64 %.03140.us.i.i, i64 0
  %spec.select38.us.i.i = add i64 %18, %.02941.us.i.i
  br label %23

19:                                               ; preds = %.split.us.i.i
  %20 = add i64 %.02941.us.i.i, 1
  %21 = add i64 %20, %.03339.us.i.i
  %22 = sub i64 %21, %.042.us.i.i
  br label %23

23:                                               ; preds = %19, %16, %14
  %.134.us.i.i = phi i64 [ 0, %19 ], [ 0, %14 ], [ %spec.select.us.i.i, %16 ]
  %.132.us.i.i = phi i64 [ %22, %19 ], [ 1, %14 ], [ %.03140.us.i.i, %16 ]
  %.130.us.i.i = phi i64 [ %21, %19 ], [ %15, %14 ], [ %spec.select38.us.i.i, %16 ]
  %.1.us.i.i = phi i64 [ %.042.us.i.i, %19 ], [ %.02941.us.i.i, %14 ], [ %.042.us.i.i, %16 ]
  %24 = add i64 %.130.us.i.i, %.134.us.i.i
  %25 = icmp slt i64 %24, %1
  br i1 %25, label %.split.us.i.i, label %.split.i.i, !llvm.loop !634

.split.i.i:                                       ; preds = %23, %44
  %26 = phi i64 [ %45, %44 ], [ 1, %23 ]
  %.042.i.i = phi i64 [ %.1.i.i, %44 ], [ 0, %23 ]
  %.02941.i.i = phi i64 [ %.130.i.i, %44 ], [ 1, %23 ]
  %.03140.i.i = phi i64 [ %.132.i.i, %44 ], [ 1, %23 ]
  %.03339.i.i = phi i64 [ %.134.i.i, %44 ], [ 0, %23 ]
  %27 = getelementptr i32, ptr %0, i64 %26
  %28 = load i32, ptr %27, align 4, !tbaa !200
  %29 = getelementptr i32, ptr %0, i64 %.042.i.i
  %30 = getelementptr i32, ptr %29, i64 %.03339.i.i
  %31 = load i32, ptr %30, align 4, !tbaa !200
  %32 = icmp ult i32 %31, %28
  br i1 %32, label %33, label %37

33:                                               ; preds = %.split.i.i
  %34 = add i64 %.02941.i.i, 1
  %35 = add i64 %34, %.03339.i.i
  %36 = sub i64 %35, %.042.i.i
  br label %44

37:                                               ; preds = %.split.i.i
  %38 = icmp eq i32 %28, %31
  br i1 %38, label %39, label %42

39:                                               ; preds = %37
  %40 = add i64 %.03339.i.i, 1
  %.not37.i.i = icmp eq i64 %40, %.03140.i.i
  %spec.select.i.i = select i1 %.not37.i.i, i64 0, i64 %40
  %41 = select i1 %.not37.i.i, i64 %.03140.i.i, i64 0
  %spec.select38.i.i = add i64 %41, %.02941.i.i
  br label %44

42:                                               ; preds = %37
  %43 = add i64 %.02941.i.i, 1
  br label %44

44:                                               ; preds = %42, %39, %33
  %.134.i.i = phi i64 [ 0, %33 ], [ 0, %42 ], [ %spec.select.i.i, %39 ]
  %.132.i.i = phi i64 [ %36, %33 ], [ 1, %42 ], [ %.03140.i.i, %39 ]
  %.130.i.i = phi i64 [ %35, %33 ], [ %43, %42 ], [ %spec.select38.i.i, %39 ]
  %.1.i.i = phi i64 [ %.042.i.i, %33 ], [ %.02941.i.i, %42 ], [ %.042.i.i, %39 ]
  %45 = add i64 %.130.i.i, %.134.i.i
  %46 = icmp slt i64 %45, %1
  br i1 %46, label %.split.i.i, label %ucs4lib__factorize.exit, !llvm.loop !634

ucs4lib__factorize.exit:                          ; preds = %44
  %47 = getelementptr inbounds nuw i8, ptr %2, i64 24
  %48 = icmp sgt i64 %.1.us.i.i, %.1.i.i
  %..i = tail call i64 @llvm.smax.i64(i64 %.1.us.i.i, i64 %.1.i.i)
  %.0.sroa.speculated.i = select i1 %48, i64 %.132.us.i.i, i64 %.132.i.i
  store i64 %.0.sroa.speculated.i, ptr %47, align 8, !tbaa !182
  %49 = getelementptr inbounds nuw i8, ptr %2, i64 16
  store i64 %..i, ptr %49, align 8, !tbaa !635
  %50 = getelementptr i32, ptr %0, i64 %.0.sroa.speculated.i
  %51 = shl i64 %..i, 2
  %bcmp = tail call i32 @bcmp(ptr nonnull %0, ptr %50, i64 %51)
  %52 = icmp eq i32 %bcmp, 0
  %53 = zext i1 %52 to i32
  %54 = getelementptr inbounds nuw i8, ptr %2, i64 40
  store i32 %53, ptr %54, align 8, !tbaa !636
  br i1 %52, label %.lr.ph.preheader, label %55

55:                                               ; preds = %ucs4lib__factorize.exit
  %56 = sub i64 %1, %..i
  %. = tail call i64 @llvm.smax.i64(i64 %..i, i64 %56)
  %57 = add i64 %., 1
  store i64 %57, ptr %47, align 8, !tbaa !637
  br label %.lr.ph.preheader

.lr.ph.preheader:                                 ; preds = %55, %ucs4lib__factorize.exit
  %58 = getelementptr inbounds nuw i8, ptr %2, i64 32
  store i64 %1, ptr %58, align 8, !tbaa !638
  %59 = add nsw i64 %1, -1
  %60 = getelementptr i32, ptr %0, i64 %59
  %61 = load i32, ptr %60, align 4, !tbaa !200
  %62 = add nsw i64 %1, -2
  br label %.lr.ph

.lr.ph:                                           ; preds = %.lr.ph.preheader, %.critedge
  %.059 = phi i64 [ %69, %.critedge ], [ %62, %.lr.ph.preheader ]
  %63 = getelementptr i32, ptr %0, i64 %.059
  %64 = load i32, ptr %63, align 4, !tbaa !200
  %65 = xor i32 %64, %61
  %66 = and i32 %65, 63
  %.not = icmp eq i32 %66, 0
  br i1 %.not, label %67, label %.critedge

67:                                               ; preds = %.lr.ph
  %68 = sub nsw i64 %59, %.059
  store i64 %68, ptr %58, align 8, !tbaa !638
  br label %.lr.ph62

.critedge:                                        ; preds = %.lr.ph
  %69 = add nsw i64 %.059, -1
  %70 = icmp sgt i64 %.059, 0
  br i1 %70, label %.lr.ph, label %.lr.ph62, !llvm.loop !639

.lr.ph62:                                         ; preds = %.critedge, %67
  %71 = tail call i64 @llvm.umin.i64(i64 %1, i64 255)
  %72 = trunc nuw i64 %71 to i8
  %73 = getelementptr inbounds nuw i8, ptr %2, i64 44
  tail call void @llvm.memset.p0.i64(ptr noundef nonnull align 1 dereferenceable(64) %73, i8 %72, i64 64, i1 false), !tbaa !195
  %74 = sub nsw i64 %1, %71
  br label %75

._crit_edge:                                      ; preds = %75
  ret void

75:                                               ; preds = %.lr.ph62, %75
  %.05361 = phi i64 [ %74, %.lr.ph62 ], [ %83, %75 ]
  %76 = sub i64 %59, %.05361
  %77 = trunc i64 %76 to i8
  %78 = getelementptr i32, ptr %0, i64 %.05361
  %79 = load i32, ptr %78, align 4, !tbaa !200
  %80 = and i32 %79, 63
  %81 = zext nneg i32 %80 to i64
  %82 = getelementptr [64 x i8], ptr %73, i64 0, i64 %81
  store i8 %77, ptr %82, align 1, !tbaa !195
  %83 = add nsw i64 %.05361, 1
  %84 = icmp slt i64 %83, %1
  br i1 %84, label %75, label %._crit_edge, !llvm.loop !640
}